ccopy_reg
_reconstructor
p0
(crequests.sessions
Session
p1
c__builtin__
object
p2
Ntp3
Rp4
(dp5
S'cookies'
p6
g0
(crequests.cookies
RequestsCookieJar
p7
g2
Ntp8
Rp9
(dp10
S'_now'
p11
I1403533139
sS'_policy'
p12
(icookielib
DefaultCookiePolicy
p13
(dp14
S'strict_rfc2965_unverifiable'
p15
I01
sS'strict_ns_domain'
p16
I0
sS'_allowed_domains'
p17
NsS'rfc2109_as_netscape'
p18
NsS'rfc2965'
p19
I00
sS'strict_domain'
p20
I00
sg11
I1403533139
sS'strict_ns_set_path'
p21
I00
sS'strict_ns_unverifiable'
p22
I00
sS'strict_ns_set_initial_dollar'
p23
I00
sS'hide_cookie2'
p24
I00
sS'_blocked_domains'
p25
(tsS'netscape'
p26
I01
sbsS'_cookies'
p27
(dp28
S'.tutsplus.com'
p29
(dp30
S'/'
p31
(dp32
S'user_id'
p33
(icookielib
Cookie
p34
(dp35
S'comment'
p36
NsS'domain'
p37
S'.tutsplus.com'
p38
sS'name'
p39
g33
sS'domain_initial_dot'
p40
I01
sS'expires'
p41
NsS'value'
p42
S'80655'
p43
sS'domain_specified'
p44
I01
sS'_rest'
p45
(dp46
S'HttpOnly'
p47
NssS'version'
p48
I0
sS'port_specified'
p49
I00
sS'rfc2109'
p50
I00
sS'discard'
p51
I01
sS'path_specified'
p52
I01
sS'path'
p53
g31
sS'port'
p54
NsS'comment_url'
p55
NsS'secure'
p56
I00
sbsS'_tuts_session'
p57
(icookielib
Cookie
p58
(dp59
g36
Nsg37
S'.tutsplus.com'
p60
sg39
S'_tuts_session'
p61
sg40
I01
sg41
I1404742739
sg42
S'1cebd4527fbf1a5d44977cae3617f7a6'
p62
sg44
I01
sg45
(dp63
S'HttpOnly'
p64
Nssg48
I0
sg49
I00
sg50
I00
sg51
I00
sg52
I01
sg53
g31
sg54
Nsg55
Nsg56
I00
sbsS'__cfduid'
p65
(icookielib
Cookie
p66
(dp67
g36
Nsg37
g29
sg39
g65
sg40
I01
sg41
I1577145000
sg42
S'd0eea8c6008b260ea3bca21ae6ff7f3361403533137482'
p68
sg44
I01
sg45
(dp69
S'HttpOnly'
p70
Nssg48
I0
sg49
I00
sg50
I00
sg51
I00
sg52
I01
sg53
g31
sg54
Nsg55
Nsg56
I00
sbssssbsS'stream'
p71
I00
sS'hooks'
p72
(dp73
S'response'
p74
(lp75
ssS'auth'
p76
NsS'trust_env'
p77
I01
sS'headers'
p78
g0
(crequests.structures
CaseInsensitiveDict
p79
g2
Ntp80
Rp81
(dp82
S'_store'
p83
(dp84
S'accept-encoding'
p85
(S'Accept-Encoding'
p86
S'gzip, deflate'
p87
tp88
sS'accept'
p89
(S'Accept'
p90
S'*/*'
p91
tp92
sS'user-agent'
p93
(S'User-Agent'
p94
S'python-requests/2.3.0 CPython/2.7.5 Darwin/13.2.0'
p95
tp96
ssbsS'cert'
p97
NsS'params'
p98
(dp99
sS'prefetch'
p100
NsS'timeout'
p101
NsS'verify'
p102
I01
sS'proxies'
p103
(dp104
sS'adapters'
p105
crequests.packages.urllib3.packages.ordered_dict
OrderedDict
p106
((lp107
(lp108
S'https://'
p109
ag0
(crequests.adapters
HTTPAdapter
p110
g2
Ntp111
Rp112
(dp113
S'_pool_block'
p114
I00
sS'_pool_maxsize'
p115
I10
sS'max_retries'
p116
I0
sS'config'
p117
(dp118
sS'_pool_connections'
p119
I10
sbaa(lp120
S'http://'
p121
ag0
(g110
g2
Ntp122
Rp123
(dp124
g114
I00
sg115
I10
sg116
I0
sg117
(dp125
sg119
I10
sbaatp126
Rp127
sS'max_redirects'
p128
I30
sb.